; Function Attrs: nofree norecurse nosync nounwind memory(readwrite, inaccessiblemem: none) uwtable
define void @N_VInv_Serial(ptr noundef readonly captures(none) %0, ptr noundef readonly captures(none) %1) #7 {
  %3 = load ptr, ptr %0, align 8, !tbaa !54
  %4 = load i64, ptr %3, align 8, !tbaa !55
  %5 = getelementptr inbounds nuw i8, ptr %3, i64 16
  %6 = load ptr, ptr %5, align 8, !tbaa !61
  %7 = load ptr, ptr %1, align 8, !tbaa !54
  %8 = getelementptr inbounds nuw i8, ptr %7, i64 16
  %9 = load ptr, ptr %8, align 8, !tbaa !61
  %10 = icmp sgt i64 %4, 0
  br i1 %10, label %.lr.ph, label %._crit_edge

.lr.ph:                                           ; preds = %2, %.lr.ph
  %.09 = phi i64 [ %15, %.lr.ph ], [ 0, %2 ]
  %11 = getelementptr inbounds nuw double, ptr %6, i64 %.09
  %12 = load double, ptr %11, align 8, !tbaa !64
  %13 = fdiv double 1.000000e+00, %12
  %14 = getelementptr inbounds nuw double, ptr %9, i64 %.09
  store double %13, ptr %14, align 8, !tbaa !64
  %15 = add nuw nsw i64 %.09, 1
  %exitcond.not = icmp eq i64 %15, %4
  br i1 %exitcond.not, label %._crit_edge, label %.lr.ph

._crit_edge:                                      ; preds = %.lr.ph, %2
  ret void
}